; Function Attrs: nounwind uwtable
define internal noundef ptr @get_timezone_utc_capi(ptr readnone captures(none) %0, ptr noundef %1) #0 {
  %3 = alloca i32, align 4
  call void @llvm.lifetime.start.p0(i64 4, ptr nonnull %3) #4
  store i32 0, ptr %3, align 4, !tbaa !22
  %4 = call i32 (ptr, ptr, ...) @PyArg_ParseTuple(ptr noundef %1, ptr noundef nonnull @.str.31, ptr noundef nonnull %3) #4
  %.not = icmp eq i32 %4, 0
  br i1 %.not, label %_Py_NewRef.exit, label %5

5:                                                ; preds = %2
  %6 = load ptr, ptr @PyDateTimeAPI, align 8, !tbaa !24
  %7 = getelementptr inbounds nuw i8, ptr %6, i64 40
  %8 = load ptr, ptr %7, align 8, !tbaa !40
  %9 = load i32, ptr %8, align 8, !tbaa !3
  %10 = icmp slt i32 %9, 0
  br i1 %10, label %_Py_NewRef.exit, label %_Py_NewRef.exit.sink.split

_Py_NewRef.exit.sink.split:                       ; preds = %5
  %11 = add nuw i32 %9, 1
  store i32 %11, ptr %8, align 8, !tbaa !3
  br label %_Py_NewRef.exit

_Py_NewRef.exit:                                  ; preds = %5, %_Py_NewRef.exit.sink.split, %2
  %.0 = phi ptr [ null, %2 ], [ %8, %_Py_NewRef.exit.sink.split ], [ %8, %5 ]
  call void @llvm.lifetime.end.p0(i64 4, ptr nonnull %3) #4
  ret ptr %.0
}